target datalayout = "e-m:e-p270:32:32-p271:32:32-p272:64:64-i64:64-i128:128-f80:128-n8:16:32:64-S128"
target triple = "x86_64-pc-linux-gnu"

%struct.lua_State = type { i8, i8, i8, i8, i8, i8, i8, ptr, ptr, ptr, ptr, ptr, ptr, ptr, ptr, i32, i32, i16, i16, i32, ptr, ptr, ptr, ptr, ptr }
%struct.global_State = type { %struct.stringtable, ptr, ptr, i8, i8, ptr, ptr, ptr, i64, i64, i32, i32, i32, [40 x ptr], [40 x ptr], ptr, ptr, ptr, [256 x i64], ptr, %struct.UpVal, [11 x ptr], [11 x ptr], [21 x ptr], %struct.lua_TValue, %struct.lua_TValue, i32, ptr, i64, [4 x i64], %struct.lua_Callbacks, %struct.lua_ExecutionCallbacks, [128 x ptr], [128 x ptr], [128 x ptr], %struct.GCStats }
%struct.stringtable = type { ptr, i32, i32 }
%struct.UpVal = type { i8, i8, i8, i8, ptr, %union.anon }
%union.anon = type { %struct.anon }
%struct.anon = type { ptr, ptr, ptr }
%struct.lua_TValue = type { %union.Value, [1 x i32], i32 }
%union.Value = type { ptr }
%struct.lua_Callbacks = type { ptr, ptr, ptr, ptr, ptr, ptr, ptr, ptr, ptr }
%struct.lua_ExecutionCallbacks = type { ptr, ptr, ptr, ptr, ptr, ptr, ptr }
%struct.GCStats = type { [32 x i32], i32, i32, i64, i64, i64, double, double, double }

; Function Attrs: mustprogress uwtable
define internal void @_ZL9freestackP9lua_StateS0_(ptr noundef %0, ptr noundef %1) #0 {
  %3 = alloca ptr, align 8
  %4 = alloca ptr, align 8
  store ptr %0, ptr %3, align 8
  store ptr %1, ptr %4, align 8
  %5 = load ptr, ptr %3, align 8
  %6 = load ptr, ptr %4, align 8
  %7 = getelementptr inbounds %struct.lua_State, ptr %6, i32 0, i32 14
  %8 = load ptr, ptr %7, align 8
  %9 = load ptr, ptr %4, align 8
  %10 = getelementptr inbounds %struct.lua_State, ptr %9, i32 0, i32 16
  %11 = load i32, ptr %10, align 4
  %12 = sext i32 %11 to i64
  %13 = mul i64 %12, 40
  %14 = load ptr, ptr %4, align 8
  %15 = getelementptr inbounds %struct.lua_State, ptr %14, i32 0, i32 2
  %16 = load i8, ptr %15, align 2
  call void @_Z10luaM_free_P9lua_StatePvmh(ptr noundef %5, ptr noundef %8, i64 noundef %13, i8 noundef zeroext %16)
  %17 = load ptr, ptr %3, align 8
  %18 = load ptr, ptr %4, align 8
  %19 = getelementptr inbounds %struct.lua_State, ptr %18, i32 0, i32 12
  %20 = load ptr, ptr %19, align 8
  %21 = load ptr, ptr %4, align 8
  %22 = getelementptr inbounds %struct.lua_State, ptr %21, i32 0, i32 15
  %23 = load i32, ptr %22, align 8
  %24 = sext i32 %23 to i64
  %25 = mul i64 %24, 16
  %26 = load ptr, ptr %4, align 8
  %27 = getelementptr inbounds %struct.lua_State, ptr %26, i32 0, i32 2
  %28 = load i8, ptr %27, align 2
  call void @_Z10luaM_free_P9lua_StatePvmh(ptr noundef %17, ptr noundef %20, i64 noundef %25, i8 noundef zeroext %28)
  ret void
}

; Function Attrs: mustprogress uwtable
define hidden void @_Z15luaE_freethreadP9lua_StateS0_P8lua_Page(ptr noundef %0, ptr noundef %1, ptr noundef %2) #0 {
  %4 = alloca ptr, align 8
  %5 = alloca ptr, align 8
  %6 = alloca ptr, align 8
  %7 = alloca ptr, align 8
  store ptr %0, ptr %4, align 8
  store ptr %1, ptr %5, align 8
  store ptr %2, ptr %6, align 8
  %8 = load ptr, ptr %4, align 8
  %9 = getelementptr inbounds %struct.lua_State, ptr %8, i32 0, i32 9
  %10 = load ptr, ptr %9, align 8
  store ptr %10, ptr %7, align 8
  %11 = load ptr, ptr %7, align 8
  %12 = getelementptr inbounds %struct.global_State, ptr %11, i32 0, i32 30
  %13 = getelementptr inbounds %struct.lua_Callbacks, ptr %12, i32 0, i32 3
  %14 = load ptr, ptr %13, align 8
  %15 = icmp ne ptr %14, null
  br i1 %15, label %16, label %22

16:                                               ; preds = %3
  %17 = load ptr, ptr %7, align 8
  %18 = getelementptr inbounds %struct.global_State, ptr %17, i32 0, i32 30
  %19 = getelementptr inbounds %struct.lua_Callbacks, ptr %18, i32 0, i32 3
  %20 = load ptr, ptr %19, align 8
  %21 = load ptr, ptr %5, align 8
  call void %20(ptr noundef null, ptr noundef %21)
  br label %22

22:                                               ; preds = %16, %3
  %23 = load ptr, ptr %4, align 8
  %24 = load ptr, ptr %5, align 8
  call void @_ZL9freestackP9lua_StateS0_(ptr noundef %23, ptr noundef %24)
  %25 = load ptr, ptr %4, align 8
  %26 = load ptr, ptr %5, align 8
  %27 = getelementptr inbounds %struct.lua_State, ptr %26, i64 0
  %28 = load ptr, ptr %5, align 8
  %29 = getelementptr inbounds %struct.lua_State, ptr %28, i32 0, i32 2
  %30 = load i8, ptr %29, align 2
  %31 = load ptr, ptr %6, align 8
  call void @_Z13luaM_freegco_P9lua_StateP8GCObjectmhP8lua_Page(ptr noundef %25, ptr noundef %27, i64 noundef 128, i8 noundef zeroext %30, ptr noundef %31)
  ret void
}