; Function Attrs: mustprogress uwtable
define hidden void @_Z15luaE_freethreadP9lua_StateS0_P8lua_Page(ptr noundef %0, ptr noundef %1, ptr noundef %2) local_unnamed_addr #0 {
  %4 = getelementptr inbounds nuw i8, ptr %0, i64 24
  %5 = load ptr, ptr %4, align 8
  %6 = getelementptr inbounds nuw i8, ptr %5, i64 3312
  %7 = load ptr, ptr %6, align 8
  %.not = icmp eq ptr %7, null
  br i1 %.not, label %9, label %8

8:                                                ; preds = %3
  tail call void %7(ptr noundef null, ptr noundef %1)
  br label %9

9:                                                ; preds = %8, %3
  %10 = getelementptr inbounds nuw i8, ptr %1, i64 64
  %11 = load ptr, ptr %10, align 8
  %12 = getelementptr inbounds nuw i8, ptr %1, i64 76
  %13 = load i32, ptr %12, align 4
  %14 = sext i32 %13 to i64
  %15 = mul nsw i64 %14, 40
  %16 = getelementptr inbounds nuw i8, ptr %1, i64 2
  %17 = load i8, ptr %16, align 2
  tail call void @_Z10luaM_free_P9lua_StatePvmh(ptr noundef nonnull %0, ptr noundef %11, i64 noundef %15, i8 noundef zeroext %17)
  %18 = getelementptr inbounds nuw i8, ptr %1, i64 48
  %19 = load ptr, ptr %18, align 8
  %20 = getelementptr inbounds nuw i8, ptr %1, i64 72
  %21 = load i32, ptr %20, align 8
  %22 = sext i32 %21 to i64
  %23 = shl nsw i64 %22, 4
  %24 = load i8, ptr %16, align 2
  tail call void @_Z10luaM_free_P9lua_StatePvmh(ptr noundef nonnull %0, ptr noundef %19, i64 noundef %23, i8 noundef zeroext %24)
  %25 = load i8, ptr %16, align 2
  tail call void @_Z13luaM_freegco_P9lua_StateP8GCObjectmhP8lua_Page(ptr noundef nonnull %0, ptr noundef %1, i64 noundef 128, i8 noundef zeroext %25, ptr noundef %2)
  ret void
}